; Function Attrs: mustprogress nounwind uwtable
define hidden void @_ZN4ncnn13PoolAllocator5clearEv(ptr noundef nonnull readonly align 8 captures(none) dereferenceable(16) %0) local_unnamed_addr #1 align 2 personality ptr @__gxx_personality_v0 {
  %2 = getelementptr inbounds nuw i8, ptr %0, i64 8
  %3 = load ptr, ptr %2, align 8, !tbaa !4
  %4 = tail call i32 @pthread_mutex_lock(ptr noundef nonnull align 8 dereferenceable(40) %3) #16
  %5 = load ptr, ptr %2, align 8, !tbaa !4
  %6 = getelementptr inbounds nuw i8, ptr %5, i64 96
  %.sroa.02.06 = load ptr, ptr %6, align 8, !tbaa !11
  %.not7 = icmp eq ptr %.sroa.02.06, %6
  br i1 %.not7, label %._crit_edge, label %.lr.ph

.lr.ph:                                           ; preds = %1, %_ZN4ncnnL8fastFreeEPv.exit
  %7 = phi ptr [ %11, %_ZN4ncnnL8fastFreeEPv.exit ], [ %5, %1 ]
  %.sroa.02.08 = phi ptr [ %.sroa.02.0, %_ZN4ncnnL8fastFreeEPv.exit ], [ %.sroa.02.06, %1 ]
  %8 = getelementptr inbounds nuw i8, ptr %.sroa.02.08, i64 24
  %9 = load ptr, ptr %8, align 8, !tbaa !27
  %.not.i = icmp eq ptr %9, null
  br i1 %.not.i, label %_ZN4ncnnL8fastFreeEPv.exit, label %10

10:                                               ; preds = %.lr.ph
  tail call void @free(ptr noundef nonnull %9) #16
  %.pre = load ptr, ptr %2, align 8, !tbaa !4
  br label %_ZN4ncnnL8fastFreeEPv.exit

_ZN4ncnnL8fastFreeEPv.exit:                       ; preds = %.lr.ph, %10
  %11 = phi ptr [ %7, %.lr.ph ], [ %.pre, %10 ]
  %.sroa.02.0 = load ptr, ptr %.sroa.02.08, align 8, !tbaa !11
  %12 = getelementptr inbounds nuw i8, ptr %11, i64 96
  %.not = icmp eq ptr %.sroa.02.0, %12
  br i1 %.not, label %._crit_edge.loopexit, label %.lr.ph, !llvm.loop !46

._crit_edge.loopexit:                             ; preds = %_ZN4ncnnL8fastFreeEPv.exit
  %.pre12 = load ptr, ptr %12, align 8, !tbaa !11
  br label %._crit_edge

._crit_edge:                                      ; preds = %._crit_edge.loopexit, %1
  %13 = phi ptr [ %.sroa.02.06, %1 ], [ %.pre12, %._crit_edge.loopexit ]
  %.lcssa5 = phi ptr [ %5, %1 ], [ %11, %._crit_edge.loopexit ]
  %.lcssa = phi ptr [ %6, %1 ], [ %12, %._crit_edge.loopexit ]
  %.not8.i.i = icmp eq ptr %13, %.lcssa
  br i1 %.not8.i.i, label %_ZNSt7__cxx114listISt4pairImPvESaIS3_EE5clearEv.exit, label %.lr.ph.i.i

.lr.ph.i.i:                                       ; preds = %._crit_edge, %.lr.ph.i.i
  %.09.i.i = phi ptr [ %14, %.lr.ph.i.i ], [ %13, %._crit_edge ]
  %14 = load ptr, ptr %.09.i.i, align 8, !tbaa !11
  tail call void @_ZdlPvm(ptr noundef nonnull %.09.i.i, i64 noundef 32) #17
  %.not.i.i = icmp eq ptr %14, %.lcssa
  br i1 %.not.i.i, label %_ZNSt7__cxx114listISt4pairImPvESaIS3_EE5clearEv.exit.loopexit, label %.lr.ph.i.i, !llvm.loop !47

_ZNSt7__cxx114listISt4pairImPvESaIS3_EE5clearEv.exit.loopexit: ; preds = %.lr.ph.i.i
  %.pre13 = load ptr, ptr %2, align 8, !tbaa !4
  br label %_ZNSt7__cxx114listISt4pairImPvESaIS3_EE5clearEv.exit

_ZNSt7__cxx114listISt4pairImPvESaIS3_EE5clearEv.exit: ; preds = %_ZNSt7__cxx114listISt4pairImPvESaIS3_EE5clearEv.exit.loopexit, %._crit_edge
  %15 = phi ptr [ %.pre13, %_ZNSt7__cxx114listISt4pairImPvESaIS3_EE5clearEv.exit.loopexit ], [ %.lcssa5, %._crit_edge ]
  %16 = getelementptr inbounds nuw i8, ptr %.lcssa5, i64 104
  store ptr %.lcssa, ptr %16, align 8, !tbaa !44
  store ptr %.lcssa, ptr %.lcssa, align 8, !tbaa !11
  %17 = getelementptr inbounds nuw i8, ptr %.lcssa5, i64 112
  store i64 0, ptr %17, align 8, !tbaa !45
  %18 = tail call i32 @pthread_mutex_unlock(ptr noundef nonnull align 8 dereferenceable(40) %15) #16
  ret void
}